target datalayout = "e-m:e-p270:32:32-p271:32:32-p272:64:64-i64:64-i128:128-f80:128-n8:16:32:64-S128"
target triple = "x86_64-pc-linux-gnu"

%"class.std::__cxx11::basic_string" = type { %"struct.std::__cxx11::basic_string<char>::_Alloc_hider", i64, %union.anon }
%"struct.std::__cxx11::basic_string<char>::_Alloc_hider" = type { ptr }
%union.anon = type { i64, [8 x i8] }
%"class.cmsys::Status" = type { i32, %union.anon.3 }
%union.anon.3 = type { i32 }
%struct.stat = type { i64, i64, i64, i32, i32, i32, i32, i64, i64, i64, i64, %struct.timespec, %struct.timespec, %struct.timespec, [3 x i64] }
%struct.timespec = type { i64, i64 }

; Function Attrs: mustprogress nounwind uwtable
define linkonce_odr dso_local void @_ZN5cmsys6StatusC2Ev(ptr noundef nonnull align 4 dereferenceable(8) %0) unnamed_addr #4 comdat align 2 {
  %2 = alloca ptr, align 8
  store ptr %0, ptr %2, align 8, !tbaa !132
  %3 = load ptr, ptr %2, align 8
  %4 = getelementptr inbounds nuw %"class.cmsys::Status", ptr %3, i32 0, i32 0
  store i32 0, ptr %4, align 4, !tbaa !134
  ret void
}

; Function Attrs: mustprogress nounwind uwtable
define available_externally noundef ptr @_ZNKSt7__cxx1112basic_stringIcSt11char_traitsIcESaIcEE7_M_dataEv(ptr noundef nonnull align 8 dereferenceable(32) %0) #4 align 2 {
  %2 = alloca ptr, align 8
  store ptr %0, ptr %2, align 8, !tbaa !28
  %3 = load ptr, ptr %2, align 8
  %4 = getelementptr inbounds nuw %"class.std::__cxx11::basic_string", ptr %3, i32 0, i32 0
  %5 = getelementptr inbounds nuw %"struct.std::__cxx11::basic_string<char>::_Alloc_hider", ptr %4, i32 0, i32 0
  %6 = load ptr, ptr %5, align 8, !tbaa !191
  ret ptr %6
}

; Function Attrs: mustprogress nounwind uwtable
define linkonce_odr dso_local i64 @_ZN5cmsys6Status7SuccessEv() #4 comdat align 2 {
  %1 = alloca %"class.cmsys::Status", align 4
  call void @llvm.memset.p0.i64(ptr align 4 %1, i8 0, i64 8, i1 false)
  call void @_ZN5cmsys6StatusC2Ev(ptr noundef nonnull align 4 dereferenceable(8) %1) #1
  %2 = load i64, ptr %1, align 4
  ret i64 %2
}

; Function Attrs: mustprogress nounwind uwtable
define available_externally noundef ptr @_ZNKSt7__cxx1112basic_stringIcSt11char_traitsIcESaIcEE5c_strEv(ptr noundef nonnull align 8 dereferenceable(32) %0) #4 align 2 {
  %2 = alloca ptr, align 8
  store ptr %0, ptr %2, align 8, !tbaa !28
  %3 = load ptr, ptr %2, align 8
  %4 = call noundef ptr @_ZNKSt7__cxx1112basic_stringIcSt11char_traitsIcESaIcEE7_M_dataEv(ptr noundef nonnull align 8 dereferenceable(32) %3)
  ret ptr %4
}

; Function Attrs: mustprogress uwtable
define dso_local i64 @_ZN5cmsys11SystemTools15FileTimeCompareERKNSt7__cxx1112basic_stringIcSt11char_traitsIcESaIcEEES8_Pi(ptr noundef nonnull align 8 dereferenceable(32) %0, ptr noundef nonnull align 8 dereferenceable(32) %1, ptr noundef %2) #7 align 2 {
  %4 = alloca %"class.cmsys::Status", align 4
  %5 = alloca ptr, align 8
  %6 = alloca ptr, align 8
  %7 = alloca ptr, align 8
  %8 = alloca %struct.stat, align 8
  %9 = alloca i32, align 4
  %10 = alloca %struct.stat, align 8
  store ptr %0, ptr %5, align 8, !tbaa !28
  store ptr %1, ptr %6, align 8, !tbaa !28
  store ptr %2, ptr %7, align 8, !tbaa !39
  %11 = load ptr, ptr %7, align 8, !tbaa !39
  store i32 0, ptr %11, align 4, !tbaa !41
  call void @llvm.lifetime.start.p0(i64 144, ptr %8) #1
  %12 = load ptr, ptr %5, align 8, !tbaa !28
  %13 = call noundef ptr @_ZNKSt7__cxx1112basic_stringIcSt11char_traitsIcESaIcEE5c_strEv(ptr noundef nonnull align 8 dereferenceable(32) %12) #1
  %14 = call i32 @stat(ptr noundef %13, ptr noundef %8) #1
  %15 = icmp ne i32 %14, 0
  br i1 %15, label %16, label %18

16:                                               ; preds = %3
  %17 = call i64 @_ZN5cmsys6Status11POSIX_errnoEv()
  store i64 %17, ptr %4, align 4
  store i32 1, ptr %9, align 4
  br label %71

18:                                               ; preds = %3
  call void @llvm.lifetime.start.p0(i64 144, ptr %10) #1
  %19 = load ptr, ptr %6, align 8, !tbaa !28
  %20 = call noundef ptr @_ZNKSt7__cxx1112basic_stringIcSt11char_traitsIcESaIcEE5c_strEv(ptr noundef nonnull align 8 dereferenceable(32) %19) #1
  %21 = call i32 @stat(ptr noundef %20, ptr noundef %10) #1
  %22 = icmp ne i32 %21, 0
  br i1 %22, label %23, label %25

23:                                               ; preds = %18
  %24 = call i64 @_ZN5cmsys6Status11POSIX_errnoEv()
  store i64 %24, ptr %4, align 4
  store i32 1, ptr %9, align 4
  br label %70

25:                                               ; preds = %18
  %26 = getelementptr inbounds nuw %struct.stat, ptr %8, i32 0, i32 12
  %27 = getelementptr inbounds nuw %struct.timespec, ptr %26, i32 0, i32 0
  %28 = load i64, ptr %27, align 8, !tbaa !76
  %29 = getelementptr inbounds nuw %struct.stat, ptr %10, i32 0, i32 12
  %30 = getelementptr inbounds nuw %struct.timespec, ptr %29, i32 0, i32 0
  %31 = load i64, ptr %30, align 8, !tbaa !76
  %32 = icmp slt i64 %28, %31
  br i1 %32, label %33, label %35

33:                                               ; preds = %25
  %34 = load ptr, ptr %7, align 8, !tbaa !39
  store i32 -1, ptr %34, align 4, !tbaa !41
  br label %68

35:                                               ; preds = %25
  %36 = getelementptr inbounds nuw %struct.stat, ptr %8, i32 0, i32 12
  %37 = getelementptr inbounds nuw %struct.timespec, ptr %36, i32 0, i32 0
  %38 = load i64, ptr %37, align 8, !tbaa !76
  %39 = getelementptr inbounds nuw %struct.stat, ptr %10, i32 0, i32 12
  %40 = getelementptr inbounds nuw %struct.timespec, ptr %39, i32 0, i32 0
  %41 = load i64, ptr %40, align 8, !tbaa !76
  %42 = icmp sgt i64 %38, %41
  br i1 %42, label %43, label %45

43:                                               ; preds = %35
  %44 = load ptr, ptr %7, align 8, !tbaa !39
  store i32 1, ptr %44, align 4, !tbaa !41
  br label %67

45:                                               ; preds = %35
  %46 = getelementptr inbounds nuw %struct.stat, ptr %8, i32 0, i32 12
  %47 = getelementptr inbounds nuw %struct.timespec, ptr %46, i32 0, i32 1
  %48 = load i64, ptr %47, align 8, !tbaa !77
  %49 = getelementptr inbounds nuw %struct.stat, ptr %10, i32 0, i32 12
  %50 = getelementptr inbounds nuw %struct.timespec, ptr %49, i32 0, i32 1
  %51 = load i64, ptr %50, align 8, !tbaa !77
  %52 = icmp slt i64 %48, %51
  br i1 %52, label %53, label %55

53:                                               ; preds = %45
  %54 = load ptr, ptr %7, align 8, !tbaa !39
  store i32 -1, ptr %54, align 4, !tbaa !41
  br label %66

55:                                               ; preds = %45
  %56 = getelementptr inbounds nuw %struct.stat, ptr %8, i32 0, i32 12
  %57 = getelementptr inbounds nuw %struct.timespec, ptr %56, i32 0, i32 1
  %58 = load i64, ptr %57, align 8, !tbaa !77
  %59 = getelementptr inbounds nuw %struct.stat, ptr %10, i32 0, i32 12
  %60 = getelementptr inbounds nuw %struct.timespec, ptr %59, i32 0, i32 1
  %61 = load i64, ptr %60, align 8, !tbaa !77
  %62 = icmp sgt i64 %58, %61
  br i1 %62, label %63, label %65

63:                                               ; preds = %55
  %64 = load ptr, ptr %7, align 8, !tbaa !39
  store i32 1, ptr %64, align 4, !tbaa !41
  br label %65

65:                                               ; preds = %63, %55
  br label %66

66:                                               ; preds = %65, %53
  br label %67

67:                                               ; preds = %66, %43
  br label %68

68:                                               ; preds = %67, %33
  %69 = call i64 @_ZN5cmsys6Status7SuccessEv()
  store i64 %69, ptr %4, align 4
  store i32 1, ptr %9, align 4
  br label %70

70:                                               ; preds = %68, %23
  call void @llvm.lifetime.end.p0(i64 144, ptr %10) #1
  br label %71

71:                                               ; preds = %70, %16
  call void @llvm.lifetime.end.p0(i64 144, ptr %8) #1
  %72 = load i64, ptr %4, align 4
  ret i64 %72
}