; Function Attrs: mustprogress uwtable
define dso_local i64 @_ZN5cmsys11SystemTools15FileTimeCompareERKNSt7__cxx1112basic_stringIcSt11char_traitsIcESaIcEEES8_Pi(ptr noundef nonnull readonly align 8 captures(none) dereferenceable(32) %0, ptr noundef nonnull readonly align 8 captures(none) dereferenceable(32) %1, ptr noundef writeonly captures(none) initializes((0, 4)) %2) local_unnamed_addr #6 align 2 {
  %4 = alloca %struct.stat, align 8
  %5 = alloca %struct.stat, align 8
  store i32 0, ptr %2, align 4, !tbaa !42
  call void @llvm.lifetime.start.p0(i64 144, ptr nonnull %4) #39
  %6 = load ptr, ptr %0, align 8, !tbaa !21
  %7 = call i32 @stat(ptr noundef %6, ptr noundef nonnull %4) #39
  %.not = icmp eq i32 %7, 0
  br i1 %.not, label %10, label %8

8:                                                ; preds = %3
  %9 = tail call i64 @_ZN5cmsys6Status11POSIX_errnoEv()
  br label %36

10:                                               ; preds = %3
  call void @llvm.lifetime.start.p0(i64 144, ptr nonnull %5) #39
  %11 = load ptr, ptr %1, align 8, !tbaa !21
  %12 = call i32 @stat(ptr noundef %11, ptr noundef nonnull %5) #39
  %.not10 = icmp eq i32 %12, 0
  br i1 %.not10, label %15, label %13

13:                                               ; preds = %10
  %14 = tail call i64 @_ZN5cmsys6Status11POSIX_errnoEv()
  br label %35

15:                                               ; preds = %10
  %16 = getelementptr inbounds nuw i8, ptr %4, i64 88
  %17 = load i64, ptr %16, align 8, !tbaa !53
  %18 = getelementptr inbounds nuw i8, ptr %5, i64 88
  %19 = load i64, ptr %18, align 8, !tbaa !53
  %20 = icmp slt i64 %17, %19
  br i1 %20, label %21, label %22

21:                                               ; preds = %15
  store i32 -1, ptr %2, align 4, !tbaa !42
  br label %35

22:                                               ; preds = %15
  %23 = icmp sgt i64 %17, %19
  br i1 %23, label %24, label %25

24:                                               ; preds = %22
  store i32 1, ptr %2, align 4, !tbaa !42
  br label %35

25:                                               ; preds = %22
  %26 = getelementptr inbounds nuw i8, ptr %4, i64 96
  %27 = load i64, ptr %26, align 8, !tbaa !54
  %28 = getelementptr inbounds nuw i8, ptr %5, i64 96
  %29 = load i64, ptr %28, align 8, !tbaa !54
  %30 = icmp slt i64 %27, %29
  br i1 %30, label %31, label %32

31:                                               ; preds = %25
  store i32 -1, ptr %2, align 4, !tbaa !42
  br label %35

32:                                               ; preds = %25
  %33 = icmp sgt i64 %27, %29
  br i1 %33, label %34, label %35

34:                                               ; preds = %32
  store i32 1, ptr %2, align 4, !tbaa !42
  br label %35

35:                                               ; preds = %21, %31, %34, %32, %24, %13
  %.sroa.0.1 = phi i64 [ %14, %13 ], [ 0, %24 ], [ 0, %32 ], [ 0, %34 ], [ 0, %31 ], [ 0, %21 ]
  call void @llvm.lifetime.end.p0(i64 144, ptr nonnull %5) #39
  br label %36

36:                                               ; preds = %35, %8
  %.sroa.0.0 = phi i64 [ %9, %8 ], [ %.sroa.0.1, %35 ]
  call void @llvm.lifetime.end.p0(i64 144, ptr nonnull %4) #39
  ret i64 %.sroa.0.0
}